; Function Attrs: nounwind uwtable
define internal ptr @math_degrees(ptr readnone captures(none) %0, ptr noundef %1) #0 {
  %3 = getelementptr i8, ptr %1, i64 8
  %.val = load ptr, ptr %3, align 8, !tbaa !16
  %.not = icmp eq ptr %.val, @PyFloat_Type
  br i1 %.not, label %4, label %6

4:                                                ; preds = %2
  %5 = getelementptr i8, ptr %1, i64 16
  %.val10 = load double, ptr %5, align 8, !tbaa !17
  br label %11

6:                                                ; preds = %2
  %7 = tail call double @PyFloat_AsDouble(ptr noundef nonnull %1) #16
  %8 = fcmp oeq double %7, -1.000000e+00
  br i1 %8, label %9, label %11

9:                                                ; preds = %6
  %10 = tail call ptr @PyErr_Occurred() #16
  %.not9 = icmp eq ptr %10, null
  br i1 %.not9, label %11, label %14

11:                                               ; preds = %6, %9, %4
  %.0 = phi double [ %.val10, %4 ], [ -1.000000e+00, %9 ], [ %7, %6 ]
  %12 = fmul double %.0, 0x404CA5DC1A63C1F8
  %13 = tail call ptr @PyFloat_FromDouble(double noundef %12) #16
  br label %14

14:                                               ; preds = %9, %11
  %.07 = phi ptr [ %13, %11 ], [ null, %9 ]
  ret ptr %.07
}